target datalayout = "e-m:e-p270:32:32-p271:32:32-p272:64:64-i64:64-i128:128-f80:128-n8:16:32:64-S128"
target triple = "x86_64-pc-linux-gnu"

%struct.__va_list_tag = type { i32, i32, ptr, ptr }
%"class.facebook::yoga::Node" = type { i8, ptr, ptr, ptr, ptr, %"class.facebook::yoga::Style", %"struct.facebook::yoga::LayoutResults", i64, i64, ptr, %"class.std::vector", ptr, %"struct.std::array.8" }
%"class.facebook::yoga::Style" = type { i32, %"class.facebook::yoga::StyleValueHandle", %"class.facebook::yoga::StyleValueHandle", %"class.facebook::yoga::StyleValueHandle", %"class.facebook::yoga::StyleValueHandle", %"struct.std::array", %"struct.std::array", %"struct.std::array", %"struct.std::array", %"struct.std::array.0", %"struct.std::array.1", %"struct.std::array.1", %"struct.std::array.1", %"class.facebook::yoga::StyleValueHandle", %"class.facebook::yoga::StyleValuePool" }
%"struct.std::array" = type { [9 x %"class.facebook::yoga::StyleValueHandle"] }
%"struct.std::array.0" = type { [3 x %"class.facebook::yoga::StyleValueHandle"] }
%"struct.std::array.1" = type { [2 x %"class.facebook::yoga::StyleValueHandle"] }
%"class.facebook::yoga::StyleValueHandle" = type { i16 }
%"class.facebook::yoga::StyleValuePool" = type { %"class.facebook::yoga::SmallValueBuffer" }
%"class.facebook::yoga::SmallValueBuffer" = type { i16, %"struct.std::array.2", %"class.std::bitset", %"class.std::unique_ptr" }
%"struct.std::array.2" = type { [4 x i32] }
%"class.std::bitset" = type { %"struct.std::_Base_bitset" }
%"struct.std::_Base_bitset" = type { i64 }
%"class.std::unique_ptr" = type { %"struct.std::__uniq_ptr_data" }
%"struct.std::__uniq_ptr_data" = type { %"class.std::__uniq_ptr_impl" }
%"class.std::__uniq_ptr_impl" = type { %"class.std::tuple" }
%"class.std::tuple" = type { %"struct.std::_Tuple_impl" }
%"struct.std::_Tuple_impl" = type { %"struct.std::_Head_base.4" }
%"struct.std::_Head_base.4" = type { ptr }
%"struct.facebook::yoga::LayoutResults" = type { i32, %"struct.facebook::yoga::FloatOptional", i32, i32, i8, i32, %"struct.std::array.5", %"struct.facebook::yoga::CachedMeasurement", i8, %"struct.std::array.6", %"struct.std::array.6", %"struct.std::array.7", %"struct.std::array.7", %"struct.std::array.7", %"struct.std::array.7" }
%"struct.facebook::yoga::FloatOptional" = type { float }
%"struct.std::array.5" = type { [8 x %"struct.facebook::yoga::CachedMeasurement"] }
%"struct.facebook::yoga::CachedMeasurement" = type { float, float, i32, i32, float, float }
%"struct.std::array.6" = type { [2 x float] }
%"struct.std::array.7" = type { [4 x float] }
%"class.std::vector" = type { %"struct.std::_Vector_base" }
%"struct.std::_Vector_base" = type { %"struct.std::_Vector_base<facebook::yoga::Node *, std::allocator<facebook::yoga::Node *>>::_Vector_impl" }
%"struct.std::_Vector_base<facebook::yoga::Node *, std::allocator<facebook::yoga::Node *>>::_Vector_impl" = type { %"struct.std::_Vector_base<facebook::yoga::Node *, std::allocator<facebook::yoga::Node *>>::_Vector_impl_data" }
%"struct.std::_Vector_base<facebook::yoga::Node *, std::allocator<facebook::yoga::Node *>>::_Vector_impl_data" = type { ptr, ptr, ptr }
%"struct.std::array.8" = type { [2 x %"class.facebook::yoga::StyleSizeLength"] }
%"class.facebook::yoga::StyleSizeLength" = type <{ %"struct.facebook::yoga::FloatOptional", i8, [3 x i8] }>
%class.anon = type { i8 }

; Function Attrs: inlinehint mustprogress nounwind uwtable
define internal noundef ptr @"_ZZN8facebook4yoga16getDefaultLoggerEvENK3$_0cvPFiPK8YGConfigPK6YGNode10YGLogLevelPKcP13__va_list_tagEEv"(ptr noundef nonnull align 1 dereferenceable(1) %0) #5 align 2 {
  %2 = alloca ptr, align 8
  store ptr %0, ptr %2, align 8, !tbaa !65
  ret ptr @"_ZZN8facebook4yoga16getDefaultLoggerEvEN3$_08__invokeEPK8YGConfigPK6YGNode10YGLogLevelPKcP13__va_list_tag"
}

; Function Attrs: mustprogress nounwind uwtable
define linkonce_odr hidden noundef i32 @_ZN8facebook4yoga12unscopedEnumENS0_8LogLevelE(i8 noundef zeroext %0) #0 comdat {
  %2 = alloca i8, align 1
  store i8 %0, ptr %2, align 1, !tbaa !4
  %3 = load i8, ptr %2, align 1, !tbaa !4
  %4 = zext i8 %3 to i32
  ret i32 %4
}

; Function Attrs: mustprogress nounwind uwtable
define hidden noundef ptr @_ZN8facebook4yoga16getDefaultLoggerEv() #0 {
  %1 = alloca %class.anon, align 1
  call void @llvm.lifetime.start.p0(i64 1, ptr %1) #9
  %2 = call noundef ptr @"_ZZN8facebook4yoga16getDefaultLoggerEvENK3$_0cvPFiPK8YGConfigPK6YGNode10YGLogLevelPKcP13__va_list_tagEEv"(ptr noundef nonnull align 1 dereferenceable(1) %1) #9
  call void @llvm.lifetime.end.p0(i64 1, ptr %1) #9
  ret ptr %2
}

; Function Attrs: mustprogress uwtable
define internal void @_ZN8facebook4yoga12_GLOBAL__N_14vlogEPKNS0_6ConfigEPKNS0_4NodeENS0_8LogLevelEPKcP13__va_list_tag(ptr noundef %0, ptr noundef %1, i8 noundef zeroext %2, ptr noundef %3, ptr noundef %4) #3 {
  %6 = alloca ptr, align 8
  %7 = alloca ptr, align 8
  %8 = alloca i8, align 1
  %9 = alloca ptr, align 8
  %10 = alloca ptr, align 8
  store ptr %0, ptr %6, align 8, !tbaa !11
  store ptr %1, ptr %7, align 8, !tbaa !13
  store i8 %2, ptr %8, align 1, !tbaa !4
  store ptr %3, ptr %9, align 8, !tbaa !8
  store ptr %4, ptr %10, align 8, !tbaa !15
  %11 = load ptr, ptr %6, align 8, !tbaa !11
  %12 = icmp eq ptr %11, null
  br i1 %12, label %13, label %21

13:                                               ; preds = %5
  %14 = call noundef ptr @_ZN8facebook4yoga16getDefaultLoggerEv()
  %15 = load ptr, ptr %7, align 8, !tbaa !13
  %16 = load i8, ptr %8, align 1, !tbaa !4
  %17 = call noundef i32 @_ZN8facebook4yoga12unscopedEnumENS0_8LogLevelE(i8 noundef zeroext %16)
  %18 = load ptr, ptr %9, align 8, !tbaa !8
  %19 = load ptr, ptr %10, align 8, !tbaa !15
  %20 = call noundef i32 %14(ptr noundef null, ptr noundef %15, i32 noundef %17, ptr noundef %18, ptr noundef %19)
  br label %27

21:                                               ; preds = %5
  %22 = load ptr, ptr %6, align 8, !tbaa !11
  %23 = load ptr, ptr %7, align 8, !tbaa !13
  %24 = load i8, ptr %8, align 1, !tbaa !4
  %25 = load ptr, ptr %9, align 8, !tbaa !8
  %26 = load ptr, ptr %10, align 8, !tbaa !15
  call void @_ZNK8facebook4yoga6Config3logEPKNS0_4NodeENS0_8LogLevelEPKcP13__va_list_tag(ptr noundef nonnull align 8 dereferenceable(48) %22, ptr noundef %23, i8 noundef zeroext %24, ptr noundef %25, ptr noundef %26)
  br label %27

27:                                               ; preds = %21, %13
  ret void
}

; Function Attrs: mustprogress nounwind uwtable
define linkonce_odr noundef ptr @_ZNK8facebook4yoga4Node9getConfigEv(ptr noundef nonnull align 8 dereferenceable(584) %0) #0 comdat align 2 {
  %2 = alloca ptr, align 8
  store ptr %0, ptr %2, align 8, !tbaa !13
  %3 = load ptr, ptr %2, align 8
  %4 = getelementptr inbounds nuw %"class.facebook::yoga::Node", ptr %3, i32 0, i32 11
  %5 = load ptr, ptr %4, align 8, !tbaa !17
  ret ptr %5
}

; Function Attrs: mustprogress nounwind uwtable
define hidden void @_ZN8facebook4yoga3logEPKNS0_4NodeENS0_8LogLevelEPKcz(ptr noundef %0, i8 noundef zeroext %1, ptr noundef %2, ...) #0 personality ptr @__gxx_personality_v0 {
  %4 = alloca ptr, align 8
  %5 = alloca i8, align 1
  %6 = alloca ptr, align 8
  %7 = alloca [1 x %struct.__va_list_tag], align 16
  store ptr %0, ptr %4, align 8, !tbaa !13
  store i8 %1, ptr %5, align 1, !tbaa !4
  store ptr %2, ptr %6, align 8, !tbaa !8
  call void @llvm.lifetime.start.p0(i64 24, ptr %7) #9
  %8 = getelementptr inbounds [1 x %struct.__va_list_tag], ptr %7, i64 0, i64 0
  call void @llvm.va_start.p0(ptr %8)
  %9 = load ptr, ptr %4, align 8, !tbaa !13
  %10 = icmp eq ptr %9, null
  br i1 %10, label %11, label %12

11:                                               ; preds = %3
  br label %16

12:                                               ; preds = %3
  %13 = load ptr, ptr %4, align 8, !tbaa !13
  %14 = invoke noundef ptr @_ZNK8facebook4yoga4Node9getConfigEv(ptr noundef nonnull align 8 dereferenceable(584) %13)
          to label %15 unwind label %24

15:                                               ; preds = %12
  br label %16

16:                                               ; preds = %15, %11
  %17 = phi ptr [ null, %11 ], [ %14, %15 ]
  %18 = load ptr, ptr %4, align 8, !tbaa !13
  %19 = load i8, ptr %5, align 1, !tbaa !4
  %20 = load ptr, ptr %6, align 8, !tbaa !8
  %21 = getelementptr inbounds [1 x %struct.__va_list_tag], ptr %7, i64 0, i64 0
  invoke void @_ZN8facebook4yoga12_GLOBAL__N_14vlogEPKNS0_6ConfigEPKNS0_4NodeENS0_8LogLevelEPKcP13__va_list_tag(ptr noundef %17, ptr noundef %18, i8 noundef zeroext %19, ptr noundef %20, ptr noundef %21)
          to label %22 unwind label %24

22:                                               ; preds = %16
  %23 = getelementptr inbounds [1 x %struct.__va_list_tag], ptr %7, i64 0, i64 0
  call void @llvm.va_end.p0(ptr %23)
  call void @llvm.lifetime.end.p0(i64 24, ptr %7) #9
  ret void

24:                                               ; preds = %16, %12
  %25 = landingpad { ptr, i32 }
          catch ptr null
  %26 = extractvalue { ptr, i32 } %25, 0
  call void @__clang_call_terminate(ptr %26) #10
  unreachable
}