; Function Attrs: mustprogress nounwind uwtable
define hidden void @_ZN8facebook4yoga3logEPKNS0_4NodeENS0_8LogLevelEPKcz(ptr noundef %0, i8 noundef zeroext %1, ptr noundef %2, ...) local_unnamed_addr #5 personality ptr @__gxx_personality_v0 {
  %4 = alloca [1 x %struct.__va_list_tag], align 16
  call void @llvm.lifetime.start.p0(i64 24, ptr nonnull %4) #10
  call void @llvm.va_start.p0(ptr nonnull %4)
  %5 = icmp eq ptr %0, null
  br i1 %5, label %.thread, label %6

6:                                                ; preds = %3
  %7 = getelementptr inbounds nuw i8, ptr %0, i64 560
  %8 = load ptr, ptr %7, align 8, !tbaa !4
  %9 = icmp eq ptr %8, null
  br i1 %9, label %.thread, label %12

.thread:                                          ; preds = %3, %6
  %switch.selectcmp.case1.i.i.i = icmp eq i8 %1, 0
  %switch.selectcmp.case2.i.i.i = icmp eq i8 %1, 5
  %switch.selectcmp.i.i.i = or i1 %switch.selectcmp.case1.i.i.i, %switch.selectcmp.case2.i.i.i
  %stderr.val.i.i.i = load ptr, ptr @stderr, align 8
  %stdout.val.i.i.i = load ptr, ptr @stdout, align 8
  %10 = select i1 %switch.selectcmp.i.i.i, ptr %stderr.val.i.i.i, ptr %stdout.val.i.i.i
  %11 = call noundef i32 @vfprintf(ptr noundef %10, ptr noundef readonly %2, ptr noundef nonnull %4) #10
  br label %_ZN8facebook4yoga12_GLOBAL__N_14vlogEPKNS0_6ConfigEPKNS0_4NodeENS0_8LogLevelEPKcP13__va_list_tag.exit

12:                                               ; preds = %6
  invoke void @_ZNK8facebook4yoga6Config3logEPKNS0_4NodeENS0_8LogLevelEPKcP13__va_list_tag(ptr noundef nonnull align 8 dereferenceable(48) %8, ptr noundef nonnull %0, i8 noundef zeroext %1, ptr noundef %2, ptr noundef nonnull %4)
          to label %_ZN8facebook4yoga12_GLOBAL__N_14vlogEPKNS0_6ConfigEPKNS0_4NodeENS0_8LogLevelEPKcP13__va_list_tag.exit unwind label %13

_ZN8facebook4yoga12_GLOBAL__N_14vlogEPKNS0_6ConfigEPKNS0_4NodeENS0_8LogLevelEPKcP13__va_list_tag.exit: ; preds = %.thread, %12
  call void @llvm.va_end.p0(ptr nonnull %4)
  call void @llvm.lifetime.end.p0(i64 24, ptr nonnull %4) #10
  ret void

13:                                               ; preds = %12
  %14 = landingpad { ptr, i32 }
          catch ptr null
  %15 = extractvalue { ptr, i32 } %14, 0
  call void @__clang_call_terminate(ptr %15) #11
  unreachable
}